target datalayout = "e-m:e-p270:32:32-p271:32:32-p272:64:64-i64:64-i128:128-f80:128-n8:16:32:64-S128"
target triple = "x86_64-pc-linux-gnu"

%struct.if_info = type { [5 x i8], i8, i8 }

; Function Attrs: null_pointer_is_valid sspstrong uwtable
define internal i32 @if_info_hash(ptr noundef %0) #0 {
  %2 = alloca ptr, align 8
  %3 = alloca ptr, align 8
  store ptr %0, ptr %2, align 8
  call void @llvm.lifetime.start.p0(i64 8, ptr %3) #13
  %4 = load ptr, ptr %2, align 8
  store ptr %4, ptr %3, align 8
  %5 = load ptr, ptr %3, align 8
  %6 = getelementptr inbounds nuw %struct.if_info, ptr %5, i32 0, i32 0
  %7 = getelementptr inbounds [5 x i8], ptr %6, i64 0, i64 0
  %8 = call i32 @g_str_hash(ptr noundef %7)
  %9 = load ptr, ptr %3, align 8
  %10 = getelementptr inbounds nuw %struct.if_info, ptr %9, i32 0, i32 1
  %11 = load i8, ptr %10, align 1
  %12 = zext i8 %11 to i32
  %13 = add i32 %8, %12
  %14 = load ptr, ptr %3, align 8
  %15 = getelementptr inbounds nuw %struct.if_info, ptr %14, i32 0, i32 2
  %16 = load i8, ptr %15, align 1
  %17 = zext i8 %16 to i32
  %18 = add i32 %13, %17
  call void @llvm.lifetime.end.p0(i64 8, ptr %3) #13
  ret i32 %18
}