; Function Attrs: null_pointer_is_valid sspstrong uwtable
define internal i32 @if_info_hash(ptr noundef %0) #0 {
  %2 = tail call i32 @g_str_hash(ptr noundef %0)
  %3 = getelementptr inbounds nuw i8, ptr %0, i64 5
  %4 = load i8, ptr %3, align 1
  %5 = zext i8 %4 to i32
  %6 = add i32 %2, %5
  %7 = getelementptr inbounds nuw i8, ptr %0, i64 6
  %8 = load i8, ptr %7, align 1
  %9 = zext i8 %8 to i32
  %10 = add i32 %6, %9
  ret i32 %10
}